; Function Attrs: mustprogress uwtable
define void @_ZN3net22QuicCryptoClientStream27ChannelIDSourceCallbackImpl3RunEPSt10unique_ptrINS_12ChannelIDKeyESt14default_deleteIS3_EE(ptr noundef nonnull readonly align 8 captures(none) dereferenceable(16) %0, ptr noundef captures(none) %1) unnamed_addr #0 align 2 personality ptr @__gxx_personality_v0 {
  %3 = getelementptr inbounds nuw i8, ptr %0, i64 8
  %4 = load ptr, ptr %3, align 8, !tbaa !6
  %5 = icmp eq ptr %4, null
  br i1 %5, label %16, label %6

6:                                                ; preds = %2
  %7 = getelementptr inbounds nuw i8, ptr %4, i64 1168
  %8 = load ptr, ptr %1, align 8, !tbaa !12
  store ptr null, ptr %1, align 8, !tbaa !12
  %9 = load ptr, ptr %7, align 8, !tbaa !12
  store ptr %8, ptr %7, align 8, !tbaa !12
  %.not.i.i = icmp eq ptr %9, null
  br i1 %.not.i.i, label %_ZNSt10unique_ptrIN3net12ChannelIDKeyESt14default_deleteIS1_EE5resetEPS1_.exit, label %_ZNKSt14default_deleteIN3net12ChannelIDKeyEEclEPS1_.exit.i.i

_ZNKSt14default_deleteIN3net12ChannelIDKeyEEclEPS1_.exit.i.i: ; preds = %6
  %10 = load ptr, ptr %9, align 8, !tbaa !3
  %11 = getelementptr inbounds nuw i8, ptr %10, i64 8
  %12 = load ptr, ptr %11, align 8
  tail call void %12(ptr noundef nonnull align 8 dereferenceable(8) %9) #21
  %.pre = load ptr, ptr %3, align 8, !tbaa !6
  br label %_ZNSt10unique_ptrIN3net12ChannelIDKeyESt14default_deleteIS1_EE5resetEPS1_.exit

_ZNSt10unique_ptrIN3net12ChannelIDKeyESt14default_deleteIS1_EE5resetEPS1_.exit: ; preds = %6, %_ZNKSt14default_deleteIN3net12ChannelIDKeyEEclEPS1_.exit.i.i
  %13 = phi ptr [ %4, %6 ], [ %.pre, %_ZNKSt14default_deleteIN3net12ChannelIDKeyEEclEPS1_.exit.i.i ]
  %14 = getelementptr inbounds nuw i8, ptr %13, i64 1153
  store i8 1, ptr %14, align 1, !tbaa !14
  %15 = getelementptr inbounds nuw i8, ptr %13, i64 1160
  store ptr null, ptr %15, align 8, !tbaa !143
  tail call void @_ZN3net22QuicCryptoClientStream15DoHandshakeLoopEPKNS_22CryptoHandshakeMessageE(ptr noundef nonnull align 8 dereferenceable(1268) %13, ptr noundef null)
  br label %16

16:                                               ; preds = %2, %_ZNSt10unique_ptrIN3net12ChannelIDKeyESt14default_deleteIS1_EE5resetEPS1_.exit
  ret void
}